target datalayout = "e-m:e-p270:32:32-p271:32:32-p272:64:64-i64:64-i128:128-f80:128-n8:16:32:64-S128"
target triple = "x86_64-pc-linux-gnu"

%struct.unit_value = type { %union.anon, ptr }
%union.anon = type { double }
%struct.AVRational = type { i32, i32 }

@.str.20 = private unnamed_addr constant [4 x i8] c"N/A\00", align 1
@unit_second_str = internal constant [2 x i8] c"s\00", align 1

; Function Attrs: inlinehint nounwind uwtable
define internal double @av_q2d(i64 %0) #6 {
  %2 = alloca %struct.AVRational, align 4
  store i64 %0, ptr %2, align 4
  %3 = getelementptr inbounds nuw %struct.AVRational, ptr %2, i32 0, i32 0
  %4 = load i32, ptr %3, align 4, !tbaa !96
  %5 = sitofp i32 %4 to double
  %6 = getelementptr inbounds nuw %struct.AVRational, ptr %2, i32 0, i32 1
  %7 = load i32, ptr %6, align 4, !tbaa !98
  %8 = sitofp i32 %7 to double
  %9 = fdiv nsz double %5, %8
  ret double %9
}

; Function Attrs: nounwind uwtable
define void @avtext_print_time(ptr noundef %0, ptr noundef %1, i64 noundef %2, ptr noundef %3, i32 noundef %4) #0 {
  %6 = alloca ptr, align 8
  %7 = alloca ptr, align 8
  %8 = alloca i64, align 8
  %9 = alloca ptr, align 8
  %10 = alloca i32, align 4
  %11 = alloca [128 x i8], align 16
  %12 = alloca double, align 8
  %13 = alloca %struct.unit_value, align 8
  store ptr %0, ptr %6, align 8, !tbaa !10
  store ptr %1, ptr %7, align 8, !tbaa !30
  store i64 %2, ptr %8, align 8, !tbaa !70
  store ptr %3, ptr %9, align 8, !tbaa !99
  store i32 %4, ptr %10, align 4, !tbaa !12
  %14 = load i32, ptr %10, align 4, !tbaa !12
  %15 = icmp ne i32 %14, 0
  br i1 %15, label %19, label %16

16:                                               ; preds = %5
  %17 = load i64, ptr %8, align 8, !tbaa !70
  %18 = icmp eq i64 %17, -9223372036854775808
  br i1 %18, label %25, label %19

19:                                               ; preds = %16, %5
  %20 = load i32, ptr %10, align 4, !tbaa !12
  %21 = icmp ne i32 %20, 0
  br i1 %21, label %22, label %29

22:                                               ; preds = %19
  %23 = load i64, ptr %8, align 8, !tbaa !70
  %24 = icmp eq i64 %23, 0
  br i1 %24, label %25, label %29

25:                                               ; preds = %22, %16
  %26 = load ptr, ptr %6, align 8, !tbaa !10
  %27 = load ptr, ptr %7, align 8, !tbaa !30
  %28 = call i32 @avtext_print_string(ptr noundef %26, ptr noundef %27, ptr noundef @.str.20, i32 noundef 1)
  br label %50

29:                                               ; preds = %22, %19
  call void @llvm.lifetime.start.p0(i64 128, ptr %11) #10
  call void @llvm.lifetime.start.p0(i64 8, ptr %12) #10
  %30 = load ptr, ptr %9, align 8, !tbaa !99
  %31 = load i64, ptr %30, align 4
  %32 = call nsz double @av_q2d(i64 %31)
  %33 = load i64, ptr %8, align 8, !tbaa !70
  %34 = sitofp i64 %33 to double
  %35 = fmul nsz double %32, %34
  store double %35, ptr %12, align 8, !tbaa !85
  call void @llvm.lifetime.start.p0(i64 16, ptr %13) #10
  %36 = load double, ptr %12, align 8, !tbaa !85
  %37 = getelementptr inbounds nuw %struct.unit_value, ptr %13, i32 0, i32 0
  store double %36, ptr %37, align 8, !tbaa !62
  %38 = getelementptr inbounds nuw %struct.unit_value, ptr %13, i32 0, i32 1
  store ptr @unit_second_str, ptr %38, align 8, !tbaa !81
  %39 = load ptr, ptr %6, align 8, !tbaa !10
  %40 = getelementptr inbounds [128 x i8], ptr %11, i64 0, i64 0
  %41 = getelementptr inbounds nuw { i64, ptr }, ptr %13, i32 0, i32 0
  %42 = load i64, ptr %41, align 8
  %43 = getelementptr inbounds nuw { i64, ptr }, ptr %13, i32 0, i32 1
  %44 = load ptr, ptr %43, align 8
  %45 = call ptr @value_string(ptr noundef %39, ptr noundef %40, i32 noundef 128, i64 %42, ptr %44)
  %46 = load ptr, ptr %6, align 8, !tbaa !10
  %47 = load ptr, ptr %7, align 8, !tbaa !30
  %48 = getelementptr inbounds [128 x i8], ptr %11, i64 0, i64 0
  %49 = call i32 @avtext_print_string(ptr noundef %46, ptr noundef %47, ptr noundef %48, i32 noundef 0)
  call void @llvm.lifetime.end.p0(i64 16, ptr %13) #10
  call void @llvm.lifetime.end.p0(i64 8, ptr %12) #10
  call void @llvm.lifetime.end.p0(i64 128, ptr %11) #10
  br label %50

50:                                               ; preds = %29, %25
  ret void
}