; Function Attrs: nounwind uwtable
define void @avtext_print_time(ptr noundef %0, ptr noundef %1, i64 noundef %2, ptr noundef readonly captures(none) %3, i32 noundef %4) local_unnamed_addr #0 {
  %6 = alloca [128 x i8], align 16
  %7 = icmp eq i32 %4, 0
  %8 = icmp eq i64 %2, -9223372036854775808
  %or.cond = and i1 %8, %7
  br i1 %or.cond, label %12, label %9

9:                                                ; preds = %5
  %10 = icmp ne i32 %4, 0
  %11 = icmp eq i64 %2, 0
  %or.cond3 = and i1 %11, %10
  br i1 %or.cond3, label %12, label %14

12:                                               ; preds = %9, %5
  %13 = tail call i32 @avtext_print_string(ptr noundef %0, ptr noundef %1, ptr noundef nonnull @.str.20, i32 noundef 1)
  br label %52

14:                                               ; preds = %9
  call void @llvm.lifetime.start.p0(i64 128, ptr nonnull %6) #12
  %15 = load i64, ptr %3, align 4
  %.sroa.0.0.extract.trunc.i = trunc i64 %15 to i32
  %.sroa.2.0.extract.shift.i = lshr i64 %15, 32
  %.sroa.2.0.extract.trunc.i = trunc nuw i64 %.sroa.2.0.extract.shift.i to i32
  %16 = sitofp i32 %.sroa.0.0.extract.trunc.i to double
  %17 = sitofp i32 %.sroa.2.0.extract.trunc.i to double
  %18 = fdiv nsz double %16, %17
  %19 = sitofp i64 %2 to double
  %20 = fmul nsz double %18, %19
  %21 = bitcast double %20 to i64
  %22 = call fastcc ptr @value_string(ptr noundef %0, ptr noundef %6, i64 %21, ptr nonnull @unit_second_str)
  %.not = icmp eq ptr %1, null
  br i1 %.not, label %26, label %23

23:                                               ; preds = %14
  %24 = getelementptr inbounds nuw i8, ptr %0, i64 52
  %25 = load i32, ptr %24, align 4, !tbaa !38
  %or.cond47.i = icmp ult i32 %25, 12
  br i1 %or.cond47.i, label %27, label %26

26:                                               ; preds = %23, %14
  call void (ptr, i32, ptr, ...) @av_log(ptr noundef null, i32 noundef 0, ptr noundef nonnull @.str, ptr noundef nonnull @.str.17, ptr noundef nonnull @.str.2, i32 noundef 455) #12
  call void @abort() #13
  unreachable

27:                                               ; preds = %23
  %28 = getelementptr inbounds nuw i8, ptr %0, i64 4904
  %29 = zext nneg i32 %25 to i64
  %30 = getelementptr inbounds nuw [12 x ptr], ptr %28, i64 0, i64 %29
  %31 = load ptr, ptr %30, align 8, !tbaa !60
  %32 = getelementptr inbounds nuw i8, ptr %0, i64 17288
  %33 = load i32, ptr %32, align 8, !tbaa !37
  %cond = icmp eq i32 %33, 0
  br i1 %cond, label %avtext_print_string.exit, label %34

34:                                               ; preds = %27
  %35 = getelementptr inbounds nuw i8, ptr %31, i64 104
  %36 = load i32, ptr %35, align 8, !tbaa !66
  %.not44.i = icmp eq i32 %36, 0
  br i1 %.not44.i, label %37, label %41

37:                                               ; preds = %34
  %38 = getelementptr inbounds nuw i8, ptr %31, i64 88
  %39 = load ptr, ptr %38, align 8, !tbaa !67
  %40 = call ptr @av_dict_get(ptr noundef %39, ptr noundef nonnull %1, ptr noundef null, i32 noundef 0) #12
  %.not45.i = icmp eq ptr %40, null
  br i1 %.not45.i, label %avtext_print_string.exit, label %41

41:                                               ; preds = %37, %34
  %42 = getelementptr inbounds nuw i8, ptr %0, i64 8
  %43 = load ptr, ptr %42, align 8, !tbaa !9
  %44 = getelementptr inbounds nuw i8, ptr %43, i64 64
  %45 = load ptr, ptr %44, align 8, !tbaa !69
  call void %45(ptr noundef nonnull %0, ptr noundef nonnull %1, ptr noundef nonnull %6) #12
  %46 = getelementptr inbounds nuw i8, ptr %0, i64 56
  %47 = load i32, ptr %24, align 4, !tbaa !38
  %48 = sext i32 %47 to i64
  %49 = getelementptr inbounds [12 x i32], ptr %46, i64 0, i64 %48
  %50 = load i32, ptr %49, align 4, !tbaa !59
  %51 = add i32 %50, 1
  store i32 %51, ptr %49, align 4, !tbaa !59
  br label %avtext_print_string.exit

avtext_print_string.exit:                         ; preds = %27, %37, %41
  call void @llvm.lifetime.end.p0(i64 128, ptr nonnull %6) #12
  br label %52

52:                                               ; preds = %avtext_print_string.exit, %12
  ret void
}